target datalayout = "e-m:e-p270:32:32-p271:32:32-p272:64:64-i64:64-i128:128-f80:128-n8:16:32:64-S128"
target triple = "x86_64-pc-linux-gnu"

%"class.std::__1::vector" = type { ptr, ptr, %"class.std::__1::__compressed_pair" }
%"class.std::__1::__compressed_pair" = type { %"struct.std::__1::__compressed_pair_elem" }
%"struct.std::__1::__compressed_pair_elem" = type { ptr }
%"class.std::initializer_list" = type { ptr, i64 }

@_ZZN3tev8colormap5turboEvE4data = internal global %"class.std::__1::vector" zeroinitializer, align 8
@_ZGVZN3tev8colormap5turboEvE4data = internal global i64 0, align 8
@__dso_handle = external hidden global i8

; Function Attrs: mustprogress uwtable
define dso_local noundef nonnull align 8 dereferenceable(24) ptr @_ZN3tev8colormap5turboEv() #4 personality ptr @__gxx_personality_v0 {
  %1 = alloca %"class.std::initializer_list", align 8
  %2 = alloca [1024 x float], align 4
  %3 = alloca ptr, align 8
  %4 = alloca i32, align 4
  %5 = load atomic i8, ptr @_ZGVZN3tev8colormap5turboEvE4data acquire, align 8
  %6 = icmp eq i8 %5, 0
  br i1 %6, label %7, label %20, !prof !5

7:                                                ; preds = %0
  %8 = call i32 @__cxa_guard_acquire(ptr @_ZGVZN3tev8colormap5turboEvE4data) #5
  %9 = icmp ne i32 %8, 0
  br i1 %9, label %10, label %20

10:                                               ; preds = %7
  call void @llvm.memcpy.p0.p0.i64(ptr align 4 %2, ptr align 4 @constinit, i64 4096, i1 false)
  %11 = getelementptr inbounds %"class.std::initializer_list", ptr %1, i32 0, i32 0
  %12 = getelementptr inbounds [1024 x float], ptr %2, i64 0, i64 0
  store ptr %12, ptr %11, align 8
  %13 = getelementptr inbounds %"class.std::initializer_list", ptr %1, i32 0, i32 1
  store i64 1024, ptr %13, align 8
  %14 = getelementptr inbounds { ptr, i64 }, ptr %1, i32 0, i32 0
  %15 = load ptr, ptr %14, align 8
  %16 = getelementptr inbounds { ptr, i64 }, ptr %1, i32 0, i32 1
  %17 = load i64, ptr %16, align 8
  invoke void @_ZNSt3__16vectorIfNS_9allocatorIfEEEC2B8ne190000ESt16initializer_listIfE(ptr noundef nonnull align 8 dereferenceable(24) @_ZZN3tev8colormap5turboEvE4data, ptr %15, i64 %17)
          to label %18 unwind label %21

18:                                               ; preds = %10
  %19 = call i32 @__cxa_atexit(ptr @_ZNSt3__16vectorIfNS_9allocatorIfEEED2B8ne190000Ev, ptr @_ZZN3tev8colormap5turboEvE4data, ptr @__dso_handle) #5
  call void @__cxa_guard_release(ptr @_ZGVZN3tev8colormap5turboEvE4data) #5
  br label %20

20:                                               ; preds = %18, %7, %0
  ret ptr @_ZZN3tev8colormap5turboEvE4data

21:                                               ; preds = %10
  %22 = landingpad { ptr, i32 }
          cleanup
  %23 = extractvalue { ptr, i32 } %22, 0
  store ptr %23, ptr %3, align 8
  %24 = extractvalue { ptr, i32 } %22, 1
  store i32 %24, ptr %4, align 4
  call void @__cxa_guard_abort(ptr @_ZGVZN3tev8colormap5turboEvE4data) #5
  br label %25

25:                                               ; preds = %21
  %26 = load ptr, ptr %3, align 8
  %27 = load i32, ptr %4, align 4
  %28 = insertvalue { ptr, i32 } poison, ptr %26, 0
  %29 = insertvalue { ptr, i32 } %28, i32 %27, 1
  resume { ptr, i32 } %29
}